target datalayout = "e-m:e-p270:32:32-p271:32:32-p272:64:64-i64:64-i128:128-f80:128-n8:16:32:64-S128"
target triple = "x86_64-pc-linux-gnu"

%struct.wtap = type { ptr, ptr, i8, i32, i32, ptr, ptr, ptr, i32, ptr, ptr, ptr, ptr, ptr, ptr, ptr, ptr, ptr, ptr, i32, i32, ptr, ptr, ptr, ptr }
%struct.netmon_t = type { i64, i32, i8, i8, ptr, i32, ptr, ptr, i32 }

; Function Attrs: null_pointer_is_valid sspstrong uwtable
define internal void @netmon_close(ptr noundef %0) #0 {
  %2 = alloca ptr, align 8
  %3 = alloca ptr, align 8
  store ptr %0, ptr %2, align 8
  call void @llvm.lifetime.start.p0(i64 8, ptr %3) #13
  %4 = load ptr, ptr %2, align 8
  %5 = getelementptr inbounds nuw %struct.wtap, ptr %4, i32 0, i32 13
  %6 = load ptr, ptr %5, align 8
  store ptr %6, ptr %3, align 8
  %7 = load ptr, ptr %3, align 8
  %8 = getelementptr inbounds nuw %struct.netmon_t, ptr %7, i32 0, i32 4
  %9 = load ptr, ptr %8, align 8
  %10 = icmp ne ptr %9, null
  br i1 %10, label %11, label %17

11:                                               ; preds = %1
  %12 = load ptr, ptr %3, align 8
  %13 = getelementptr inbounds nuw %struct.netmon_t, ptr %12, i32 0, i32 4
  %14 = load ptr, ptr %13, align 8
  call void @g_free(ptr noundef %14)
  %15 = load ptr, ptr %3, align 8
  %16 = getelementptr inbounds nuw %struct.netmon_t, ptr %15, i32 0, i32 4
  store ptr null, ptr %16, align 8
  br label %17

17:                                               ; preds = %11, %1
  %18 = load ptr, ptr %3, align 8
  %19 = getelementptr inbounds nuw %struct.netmon_t, ptr %18, i32 0, i32 6
  %20 = load ptr, ptr %19, align 8
  %21 = icmp ne ptr %20, null
  br i1 %21, label %22, label %28

22:                                               ; preds = %17
  %23 = load ptr, ptr %3, align 8
  %24 = getelementptr inbounds nuw %struct.netmon_t, ptr %23, i32 0, i32 6
  %25 = load ptr, ptr %24, align 8
  call void @g_hash_table_destroy(ptr noundef %25)
  %26 = load ptr, ptr %3, align 8
  %27 = getelementptr inbounds nuw %struct.netmon_t, ptr %26, i32 0, i32 6
  store ptr null, ptr %27, align 8
  br label %28

28:                                               ; preds = %22, %17
  %29 = load ptr, ptr %3, align 8
  %30 = getelementptr inbounds nuw %struct.netmon_t, ptr %29, i32 0, i32 7
  %31 = load ptr, ptr %30, align 8
  %32 = icmp ne ptr %31, null
  br i1 %32, label %33, label %39

33:                                               ; preds = %28
  %34 = load ptr, ptr %3, align 8
  %35 = getelementptr inbounds nuw %struct.netmon_t, ptr %34, i32 0, i32 7
  %36 = load ptr, ptr %35, align 8
  call void @g_hash_table_destroy(ptr noundef %36)
  %37 = load ptr, ptr %3, align 8
  %38 = getelementptr inbounds nuw %struct.netmon_t, ptr %37, i32 0, i32 7
  store ptr null, ptr %38, align 8
  br label %39

39:                                               ; preds = %33, %28
  call void @llvm.lifetime.end.p0(i64 8, ptr %3) #13
  ret void
}