; Function Attrs: null_pointer_is_valid sspstrong uwtable
define internal void @netmon_close(ptr noundef readonly captures(none) %0) #0 {
  %2 = getelementptr inbounds nuw i8, ptr %0, i64 96
  %3 = load ptr, ptr %2, align 8
  %4 = getelementptr inbounds nuw i8, ptr %3, i64 16
  %5 = load ptr, ptr %4, align 8
  %.not = icmp eq ptr %5, null
  br i1 %.not, label %7, label %6

6:                                                ; preds = %1
  tail call void @g_free(ptr noundef nonnull %5)
  store ptr null, ptr %4, align 8
  br label %7

7:                                                ; preds = %6, %1
  %8 = getelementptr inbounds nuw i8, ptr %3, i64 32
  %9 = load ptr, ptr %8, align 8
  %.not12 = icmp eq ptr %9, null
  br i1 %.not12, label %11, label %10

10:                                               ; preds = %7
  tail call void @g_hash_table_destroy(ptr noundef nonnull %9)
  store ptr null, ptr %8, align 8
  br label %11

11:                                               ; preds = %10, %7
  %12 = getelementptr inbounds nuw i8, ptr %3, i64 40
  %13 = load ptr, ptr %12, align 8
  %.not13 = icmp eq ptr %13, null
  br i1 %.not13, label %15, label %14

14:                                               ; preds = %11
  tail call void @g_hash_table_destroy(ptr noundef nonnull %13)
  store ptr null, ptr %12, align 8
  br label %15

15:                                               ; preds = %14, %11
  ret void
}